target datalayout = "e-m:e-p270:32:32-p271:32:32-p272:64:64-i64:64-i128:128-f80:128-n8:16:32:64-S128"
target triple = "x86_64-pc-linux-gnu"

; Function Attrs: mustprogress nounwind uwtable
define internal noundef i32 @_ZL10XXH_read32PKv(ptr noundef %0) #4 {
  %2 = alloca ptr, align 8
  store ptr %0, ptr %2, align 8, !tbaa !4
  %3 = load ptr, ptr %2, align 8, !tbaa !4
  %4 = load i32, ptr %3, align 1, !tbaa !10
  ret i32 %4
}

; Function Attrs: mustprogress nounwind uwtable
define internal noundef i32 @_ZL15XXH32_avalanchej(i32 noundef %0) #4 {
  %2 = alloca i32, align 4
  store i32 %0, ptr %2, align 4, !tbaa !10
  %3 = load i32, ptr %2, align 4, !tbaa !10
  %4 = lshr i32 %3, 15
  %5 = load i32, ptr %2, align 4, !tbaa !10
  %6 = xor i32 %5, %4
  store i32 %6, ptr %2, align 4, !tbaa !10
  %7 = load i32, ptr %2, align 4, !tbaa !10
  %8 = mul i32 %7, -2048144777
  store i32 %8, ptr %2, align 4, !tbaa !10
  %9 = load i32, ptr %2, align 4, !tbaa !10
  %10 = lshr i32 %9, 13
  %11 = load i32, ptr %2, align 4, !tbaa !10
  %12 = xor i32 %11, %10
  store i32 %12, ptr %2, align 4, !tbaa !10
  %13 = load i32, ptr %2, align 4, !tbaa !10
  %14 = mul i32 %13, -1028477379
  store i32 %14, ptr %2, align 4, !tbaa !10
  %15 = load i32, ptr %2, align 4, !tbaa !10
  %16 = lshr i32 %15, 16
  %17 = load i32, ptr %2, align 4, !tbaa !10
  %18 = xor i32 %17, %16
  store i32 %18, ptr %2, align 4, !tbaa !10
  %19 = load i32, ptr %2, align 4, !tbaa !10
  ret i32 %19
}

; Function Attrs: alwaysinline mustprogress uwtable
define internal noundef i32 @_ZL12XXH_readLE32PKv(ptr noundef %0) #7 {
  %2 = alloca ptr, align 8
  store ptr %0, ptr %2, align 8, !tbaa !4
  %3 = load ptr, ptr %2, align 8, !tbaa !4
  %4 = call noundef i32 @_ZL10XXH_read32PKv(ptr noundef %3)
  ret i32 %4
}

; Function Attrs: mustprogress nounwind willreturn memory(read) uwtable
define internal noundef i32 @_ZL14XXH32_finalizejPKhm13XXH_alignment(i32 noundef %0, ptr noundef %1, i64 noundef %2, i32 noundef %3) #1 {
  %5 = alloca i32, align 4
  %6 = alloca ptr, align 8
  %7 = alloca i64, align 8
  %8 = alloca i32, align 4
  store i32 %0, ptr %5, align 4, !tbaa !10
  store ptr %1, ptr %6, align 8, !tbaa !12
  store i64 %2, ptr %7, align 8, !tbaa !8
  store i32 %3, ptr %8, align 4, !tbaa !14
  %9 = load ptr, ptr %6, align 8, !tbaa !12
  %10 = icmp eq ptr %9, null
  br i1 %10, label %11, label %16

11:                                               ; preds = %4
  %12 = load i64, ptr %7, align 8, !tbaa !8
  %13 = icmp eq i64 %12, 0
  br i1 %13, label %15, label %14

14:                                               ; preds = %11
  unreachable

15:                                               ; preds = %11
  br label %16

16:                                               ; preds = %15, %4
  %17 = load i64, ptr %7, align 8, !tbaa !8
  %18 = and i64 %17, 15
  store i64 %18, ptr %7, align 8, !tbaa !8
  br label %19

19:                                               ; preds = %35, %16
  %20 = load i64, ptr %7, align 8, !tbaa !8
  %21 = icmp uge i64 %20, 4
  br i1 %21, label %22, label %38

22:                                               ; preds = %19
  br label %23

23:                                               ; preds = %22
  %24 = load ptr, ptr %6, align 8, !tbaa !12
  %25 = load i32, ptr %8, align 4, !tbaa !14
  %26 = call noundef i32 @_ZL18XXH_readLE32_alignPKv13XXH_alignment(ptr noundef %24, i32 noundef %25)
  %27 = mul i32 %26, -1028477379
  %28 = load i32, ptr %5, align 4, !tbaa !10
  %29 = add i32 %28, %27
  store i32 %29, ptr %5, align 4, !tbaa !10
  %30 = load ptr, ptr %6, align 8, !tbaa !12
  %31 = getelementptr inbounds i8, ptr %30, i64 4
  store ptr %31, ptr %6, align 8, !tbaa !12
  %32 = load i32, ptr %5, align 4, !tbaa !10
  %33 = call i32 @llvm.fshl.i32(i32 %32, i32 %32, i32 17)
  %34 = mul i32 %33, 668265263
  store i32 %34, ptr %5, align 4, !tbaa !10
  br label %35

35:                                               ; preds = %23
  %36 = load i64, ptr %7, align 8, !tbaa !8
  %37 = sub i64 %36, 4
  store i64 %37, ptr %7, align 8, !tbaa !8
  br label %19, !llvm.loop !28

38:                                               ; preds = %19
  br label %39

39:                                               ; preds = %54, %38
  %40 = load i64, ptr %7, align 8, !tbaa !8
  %41 = icmp ugt i64 %40, 0
  br i1 %41, label %42, label %57

42:                                               ; preds = %39
  br label %43

43:                                               ; preds = %42
  %44 = load ptr, ptr %6, align 8, !tbaa !12
  %45 = getelementptr inbounds nuw i8, ptr %44, i32 1
  store ptr %45, ptr %6, align 8, !tbaa !12
  %46 = load i8, ptr %44, align 1, !tbaa !29
  %47 = zext i8 %46 to i32
  %48 = mul i32 %47, 374761393
  %49 = load i32, ptr %5, align 4, !tbaa !10
  %50 = add i32 %49, %48
  store i32 %50, ptr %5, align 4, !tbaa !10
  %51 = load i32, ptr %5, align 4, !tbaa !10
  %52 = call i32 @llvm.fshl.i32(i32 %51, i32 %51, i32 11)
  %53 = mul i32 %52, -1640531535
  store i32 %53, ptr %5, align 4, !tbaa !10
  br label %54

54:                                               ; preds = %43
  %55 = load i64, ptr %7, align 8, !tbaa !8
  %56 = add i64 %55, -1
  store i64 %56, ptr %7, align 8, !tbaa !8
  br label %39, !llvm.loop !30

57:                                               ; preds = %39
  %58 = load i32, ptr %5, align 4, !tbaa !10
  %59 = call noundef i32 @_ZL15XXH32_avalanchej(i32 noundef %58)
  ret i32 %59
}

; Function Attrs: mustprogress nounwind uwtable
define internal noundef i32 @_ZL11XXH32_roundjj(i32 noundef %0, i32 noundef %1) #4 {
  %3 = alloca i32, align 4
  %4 = alloca i32, align 4
  store i32 %0, ptr %3, align 4, !tbaa !10
  store i32 %1, ptr %4, align 4, !tbaa !10
  %5 = load i32, ptr %4, align 4, !tbaa !10
  %6 = mul i32 %5, -2048144777
  %7 = load i32, ptr %3, align 4, !tbaa !10
  %8 = add i32 %7, %6
  store i32 %8, ptr %3, align 4, !tbaa !10
  %9 = load i32, ptr %3, align 4, !tbaa !10
  %10 = call i32 @llvm.fshl.i32(i32 %9, i32 %9, i32 13)
  store i32 %10, ptr %3, align 4, !tbaa !10
  %11 = load i32, ptr %3, align 4, !tbaa !10
  %12 = mul i32 %11, -1640531535
  store i32 %12, ptr %3, align 4, !tbaa !10
  %13 = load i32, ptr %3, align 4, !tbaa !10
  %14 = call i32 asm sideeffect "", "=r,0,~{dirflag},~{fpsr},~{flags}"(i32 %13) #22, !srcloc !27
  store i32 %14, ptr %3, align 4, !tbaa !10
  %15 = load i32, ptr %3, align 4, !tbaa !10
  ret i32 %15
}

; Function Attrs: alwaysinline mustprogress uwtable
define internal noundef i32 @_ZL18XXH_readLE32_alignPKv13XXH_alignment(ptr noundef %0, i32 noundef %1) #7 {
  %3 = alloca i32, align 4
  %4 = alloca ptr, align 8
  %5 = alloca i32, align 4
  store ptr %0, ptr %4, align 8, !tbaa !4
  store i32 %1, ptr %5, align 4, !tbaa !14
  %6 = load i32, ptr %5, align 4, !tbaa !14
  %7 = icmp eq i32 %6, 1
  br i1 %7, label %8, label %11

8:                                                ; preds = %2
  %9 = load ptr, ptr %4, align 8, !tbaa !4
  %10 = call noundef i32 @_ZL12XXH_readLE32PKv(ptr noundef %9)
  store i32 %10, ptr %3, align 4
  br label %14

11:                                               ; preds = %2
  %12 = load ptr, ptr %4, align 8, !tbaa !4
  %13 = load i32, ptr %12, align 4, !tbaa !10
  store i32 %13, ptr %3, align 4
  br label %14

14:                                               ; preds = %11, %8
  %15 = load i32, ptr %3, align 4
  ret i32 %15
}

; Function Attrs: alwaysinline mustprogress nounwind willreturn memory(read) uwtable
define internal noundef i32 @_ZL18XXH32_endian_alignPKhmj13XXH_alignment(ptr noundef %0, i64 noundef %1, i32 noundef %2, i32 noundef %3) #2 {
  %5 = alloca ptr, align 8
  %6 = alloca i64, align 8
  %7 = alloca i32, align 4
  %8 = alloca i32, align 4
  %9 = alloca i32, align 4
  %10 = alloca ptr, align 8
  %11 = alloca ptr, align 8
  %12 = alloca i32, align 4
  %13 = alloca i32, align 4
  %14 = alloca i32, align 4
  %15 = alloca i32, align 4
  store ptr %0, ptr %5, align 8, !tbaa !12
  store i64 %1, ptr %6, align 8, !tbaa !8
  store i32 %2, ptr %7, align 4, !tbaa !10
  store i32 %3, ptr %8, align 4, !tbaa !14
  call void @llvm.lifetime.start.p0(i64 4, ptr %9) #22
  %16 = load ptr, ptr %5, align 8, !tbaa !12
  %17 = icmp eq ptr %16, null
  br i1 %17, label %18, label %23

18:                                               ; preds = %4
  %19 = load i64, ptr %6, align 8, !tbaa !8
  %20 = icmp eq i64 %19, 0
  br i1 %20, label %22, label %21

21:                                               ; preds = %18
  unreachable

22:                                               ; preds = %18
  br label %23

23:                                               ; preds = %22, %4
  %24 = load i64, ptr %6, align 8, !tbaa !8
  %25 = icmp uge i64 %24, 16
  br i1 %25, label %26, label %86

26:                                               ; preds = %23
  call void @llvm.lifetime.start.p0(i64 8, ptr %10) #22
  %27 = load ptr, ptr %5, align 8, !tbaa !12
  %28 = load i64, ptr %6, align 8, !tbaa !8
  %29 = getelementptr inbounds nuw i8, ptr %27, i64 %28
  store ptr %29, ptr %10, align 8, !tbaa !12
  call void @llvm.lifetime.start.p0(i64 8, ptr %11) #22
  %30 = load ptr, ptr %10, align 8, !tbaa !12
  %31 = getelementptr inbounds i8, ptr %30, i64 -15
  store ptr %31, ptr %11, align 8, !tbaa !12
  call void @llvm.lifetime.start.p0(i64 4, ptr %12) #22
  %32 = load i32, ptr %7, align 4, !tbaa !10
  %33 = add i32 %32, -1640531535
  %34 = add i32 %33, -2048144777
  store i32 %34, ptr %12, align 4, !tbaa !10
  call void @llvm.lifetime.start.p0(i64 4, ptr %13) #22
  %35 = load i32, ptr %7, align 4, !tbaa !10
  %36 = add i32 %35, -2048144777
  store i32 %36, ptr %13, align 4, !tbaa !10
  call void @llvm.lifetime.start.p0(i64 4, ptr %14) #22
  %37 = load i32, ptr %7, align 4, !tbaa !10
  %38 = add i32 %37, 0
  store i32 %38, ptr %14, align 4, !tbaa !10
  call void @llvm.lifetime.start.p0(i64 4, ptr %15) #22
  %39 = load i32, ptr %7, align 4, !tbaa !10
  %40 = sub i32 %39, -1640531535
  store i32 %40, ptr %15, align 4, !tbaa !10
  br label %41

41:                                               ; preds = %70, %26
  %42 = load i32, ptr %12, align 4, !tbaa !10
  %43 = load ptr, ptr %5, align 8, !tbaa !12
  %44 = load i32, ptr %8, align 4, !tbaa !14
  %45 = call noundef i32 @_ZL18XXH_readLE32_alignPKv13XXH_alignment(ptr noundef %43, i32 noundef %44)
  %46 = call noundef i32 @_ZL11XXH32_roundjj(i32 noundef %42, i32 noundef %45)
  store i32 %46, ptr %12, align 4, !tbaa !10
  %47 = load ptr, ptr %5, align 8, !tbaa !12
  %48 = getelementptr inbounds i8, ptr %47, i64 4
  store ptr %48, ptr %5, align 8, !tbaa !12
  %49 = load i32, ptr %13, align 4, !tbaa !10
  %50 = load ptr, ptr %5, align 8, !tbaa !12
  %51 = load i32, ptr %8, align 4, !tbaa !14
  %52 = call noundef i32 @_ZL18XXH_readLE32_alignPKv13XXH_alignment(ptr noundef %50, i32 noundef %51)
  %53 = call noundef i32 @_ZL11XXH32_roundjj(i32 noundef %49, i32 noundef %52)
  store i32 %53, ptr %13, align 4, !tbaa !10
  %54 = load ptr, ptr %5, align 8, !tbaa !12
  %55 = getelementptr inbounds i8, ptr %54, i64 4
  store ptr %55, ptr %5, align 8, !tbaa !12
  %56 = load i32, ptr %14, align 4, !tbaa !10
  %57 = load ptr, ptr %5, align 8, !tbaa !12
  %58 = load i32, ptr %8, align 4, !tbaa !14
  %59 = call noundef i32 @_ZL18XXH_readLE32_alignPKv13XXH_alignment(ptr noundef %57, i32 noundef %58)
  %60 = call noundef i32 @_ZL11XXH32_roundjj(i32 noundef %56, i32 noundef %59)
  store i32 %60, ptr %14, align 4, !tbaa !10
  %61 = load ptr, ptr %5, align 8, !tbaa !12
  %62 = getelementptr inbounds i8, ptr %61, i64 4
  store ptr %62, ptr %5, align 8, !tbaa !12
  %63 = load i32, ptr %15, align 4, !tbaa !10
  %64 = load ptr, ptr %5, align 8, !tbaa !12
  %65 = load i32, ptr %8, align 4, !tbaa !14
  %66 = call noundef i32 @_ZL18XXH_readLE32_alignPKv13XXH_alignment(ptr noundef %64, i32 noundef %65)
  %67 = call noundef i32 @_ZL11XXH32_roundjj(i32 noundef %63, i32 noundef %66)
  store i32 %67, ptr %15, align 4, !tbaa !10
  %68 = load ptr, ptr %5, align 8, !tbaa !12
  %69 = getelementptr inbounds i8, ptr %68, i64 4
  store ptr %69, ptr %5, align 8, !tbaa !12
  br label %70

70:                                               ; preds = %41
  %71 = load ptr, ptr %5, align 8, !tbaa !12
  %72 = load ptr, ptr %11, align 8, !tbaa !12
  %73 = icmp ult ptr %71, %72
  br i1 %73, label %41, label %74, !llvm.loop !16

74:                                               ; preds = %70
  %75 = load i32, ptr %12, align 4, !tbaa !10
  %76 = call i32 @llvm.fshl.i32(i32 %75, i32 %75, i32 1)
  %77 = load i32, ptr %13, align 4, !tbaa !10
  %78 = call i32 @llvm.fshl.i32(i32 %77, i32 %77, i32 7)
  %79 = add i32 %76, %78
  %80 = load i32, ptr %14, align 4, !tbaa !10
  %81 = call i32 @llvm.fshl.i32(i32 %80, i32 %80, i32 12)
  %82 = add i32 %79, %81
  %83 = load i32, ptr %15, align 4, !tbaa !10
  %84 = call i32 @llvm.fshl.i32(i32 %83, i32 %83, i32 18)
  %85 = add i32 %82, %84
  store i32 %85, ptr %9, align 4, !tbaa !10
  call void @llvm.lifetime.end.p0(i64 4, ptr %15) #22
  call void @llvm.lifetime.end.p0(i64 4, ptr %14) #22
  call void @llvm.lifetime.end.p0(i64 4, ptr %13) #22
  call void @llvm.lifetime.end.p0(i64 4, ptr %12) #22
  call void @llvm.lifetime.end.p0(i64 8, ptr %11) #22
  call void @llvm.lifetime.end.p0(i64 8, ptr %10) #22
  br label %89

86:                                               ; preds = %23
  %87 = load i32, ptr %7, align 4, !tbaa !10
  %88 = add i32 %87, 374761393
  store i32 %88, ptr %9, align 4, !tbaa !10
  br label %89

89:                                               ; preds = %86, %74
  %90 = load i64, ptr %6, align 8, !tbaa !8
  %91 = trunc i64 %90 to i32
  %92 = load i32, ptr %9, align 4, !tbaa !10
  %93 = add i32 %92, %91
  store i32 %93, ptr %9, align 4, !tbaa !10
  %94 = load i32, ptr %9, align 4, !tbaa !10
  %95 = load ptr, ptr %5, align 8, !tbaa !12
  %96 = load i64, ptr %6, align 8, !tbaa !8
  %97 = and i64 %96, 15
  %98 = load i32, ptr %8, align 4, !tbaa !14
  %99 = call noundef i32 @_ZL14XXH32_finalizejPKhm13XXH_alignment(i32 noundef %94, ptr noundef %95, i64 noundef %97, i32 noundef %98) #21
  call void @llvm.lifetime.end.p0(i64 4, ptr %9) #22
  ret i32 %99
}

; Function Attrs: mustprogress nounwind willreturn memory(read) uwtable
define i32 @ROCKSDB_XXH32(ptr noundef %0, i64 noundef %1, i32 noundef %2) #1 {
  %4 = alloca ptr, align 8
  %5 = alloca i64, align 8
  %6 = alloca i32, align 4
  store ptr %0, ptr %4, align 8, !tbaa !4
  store i64 %1, ptr %5, align 8, !tbaa !8
  store i32 %2, ptr %6, align 4, !tbaa !10
  %7 = load ptr, ptr %4, align 8, !tbaa !4
  %8 = load i64, ptr %5, align 8, !tbaa !8
  %9 = load i32, ptr %6, align 4, !tbaa !10
  %10 = call noundef i32 @_ZL18XXH32_endian_alignPKhmj13XXH_alignment(ptr noundef %7, i64 noundef %8, i32 noundef %9, i32 noundef 1) #21
  ret i32 %10
}