; Function Attrs: mustprogress nofree nounwind willreturn memory(read) uwtable
define i32 @ROCKSDB_XXH32(ptr noundef readonly %0, i64 noundef %1, i32 noundef %2) local_unnamed_addr #1 {
  %4 = icmp eq ptr %0, null
  br i1 %4, label %.preheader.thread.i, label %5

5:                                                ; preds = %3
  %6 = icmp ugt i64 %1, 15
  br i1 %6, label %7, label %_ZL18XXH32_endian_alignPKhmj13XXH_alignment.exit

7:                                                ; preds = %5
  %8 = getelementptr inbounds nuw i8, ptr %0, i64 %1
  %9 = getelementptr inbounds i8, ptr %8, i64 -15
  %10 = add i32 %2, 606290984
  %11 = add i32 %2, -2048144777
  %12 = add i32 %2, 1640531535
  br label %13

13:                                               ; preds = %13, %7
  %.041.i = phi ptr [ %0, %7 ], [ %37, %13 ]
  %.040.i = phi i32 [ %10, %7 ], [ %18, %13 ]
  %.039.i = phi i32 [ %11, %7 ], [ %24, %13 ]
  %.038.i = phi i32 [ %2, %7 ], [ %30, %13 ]
  %.0.i = phi i32 [ %12, %7 ], [ %36, %13 ]
  %.041.i.val = load i32, ptr %.041.i, align 1, !tbaa !4
  %14 = mul i32 %.041.i.val, -2048144777
  %15 = add i32 %14, %.040.i
  %16 = tail call i32 @llvm.fshl.i32(i32 %15, i32 %15, i32 13)
  %17 = mul i32 %16, -1640531535
  %18 = tail call noundef i32 asm sideeffect "", "=r,0,~{dirflag},~{fpsr},~{flags}"(i32 %17) #34, !srcloc !8
  %19 = getelementptr inbounds nuw i8, ptr %.041.i, i64 4
  %.val = load i32, ptr %19, align 1, !tbaa !4
  %20 = mul i32 %.val, -2048144777
  %21 = add i32 %20, %.039.i
  %22 = tail call i32 @llvm.fshl.i32(i32 %21, i32 %21, i32 13)
  %23 = mul i32 %22, -1640531535
  %24 = tail call noundef i32 asm sideeffect "", "=r,0,~{dirflag},~{fpsr},~{flags}"(i32 %23) #34, !srcloc !8
  %25 = getelementptr inbounds nuw i8, ptr %.041.i, i64 8
  %.val6 = load i32, ptr %25, align 1, !tbaa !4
  %26 = mul i32 %.val6, -2048144777
  %27 = add i32 %26, %.038.i
  %28 = tail call i32 @llvm.fshl.i32(i32 %27, i32 %27, i32 13)
  %29 = mul i32 %28, -1640531535
  %30 = tail call noundef i32 asm sideeffect "", "=r,0,~{dirflag},~{fpsr},~{flags}"(i32 %29) #34, !srcloc !8
  %31 = getelementptr inbounds nuw i8, ptr %.041.i, i64 12
  %.val7 = load i32, ptr %31, align 1, !tbaa !4
  %32 = mul i32 %.val7, -2048144777
  %33 = add i32 %32, %.0.i
  %34 = tail call i32 @llvm.fshl.i32(i32 %33, i32 %33, i32 13)
  %35 = mul i32 %34, -1640531535
  %36 = tail call noundef i32 asm sideeffect "", "=r,0,~{dirflag},~{fpsr},~{flags}"(i32 %35) #34, !srcloc !8
  %37 = getelementptr inbounds nuw i8, ptr %.041.i, i64 16
  %38 = icmp ult ptr %37, %9
  br i1 %38, label %13, label %_ZL18XXH32_endian_alignPKhmj13XXH_alignment.exit.thread, !llvm.loop !9

_ZL18XXH32_endian_alignPKhmj13XXH_alignment.exit.thread: ; preds = %13
  %39 = tail call i32 @llvm.fshl.i32(i32 %18, i32 %18, i32 1)
  %40 = tail call i32 @llvm.fshl.i32(i32 %24, i32 %24, i32 7)
  %41 = tail call i32 @llvm.fshl.i32(i32 %30, i32 %30, i32 12)
  %42 = tail call i32 @llvm.fshl.i32(i32 %36, i32 %36, i32 18)
  %43 = trunc i64 %1 to i32
  %44 = add i32 %39, %43
  %45 = add i32 %44, %40
  %46 = add i32 %45, %41
  %47 = add i32 %46, %42
  %48 = and i64 %1, 15
  br label %54

_ZL18XXH32_endian_alignPKhmj13XXH_alignment.exit: ; preds = %5
  %49 = add i32 %2, 374761393
  %50 = trunc nuw i64 %1 to i32
  %51 = add i32 %49, %50
  br label %54

.preheader.thread.i:                              ; preds = %3
  %52 = icmp eq i64 %1, 0
  tail call void @llvm.assume(i1 %52)
  %53 = add i32 %2, 374761393
  br label %_ZL14XXH32_finalizejPKhm13XXH_alignment.exit

54:                                               ; preds = %_ZL18XXH32_endian_alignPKhmj13XXH_alignment.exit, %_ZL18XXH32_endian_alignPKhmj13XXH_alignment.exit.thread
  %55 = phi i64 [ %48, %_ZL18XXH32_endian_alignPKhmj13XXH_alignment.exit.thread ], [ %1, %_ZL18XXH32_endian_alignPKhmj13XXH_alignment.exit ]
  %56 = phi i32 [ %47, %_ZL18XXH32_endian_alignPKhmj13XXH_alignment.exit.thread ], [ %51, %_ZL18XXH32_endian_alignPKhmj13XXH_alignment.exit ]
  %.1.i10 = phi ptr [ %37, %_ZL18XXH32_endian_alignPKhmj13XXH_alignment.exit.thread ], [ %0, %_ZL18XXH32_endian_alignPKhmj13XXH_alignment.exit ]
  %57 = icmp samesign ugt i64 %55, 3
  br i1 %57, label %_ZL18XXH_readLE32_alignPKv13XXH_alignment.exit.i, label %.preheader.i

.preheader.i:                                     ; preds = %_ZL18XXH_readLE32_alignPKv13XXH_alignment.exit.i, %54
  %.017.lcssa.i = phi ptr [ %.1.i10, %54 ], [ %60, %_ZL18XXH_readLE32_alignPKv13XXH_alignment.exit.i ]
  %.015.lcssa.i = phi i64 [ %55, %54 ], [ %63, %_ZL18XXH_readLE32_alignPKv13XXH_alignment.exit.i ]
  %.0.lcssa.i = phi i32 [ %56, %54 ], [ %62, %_ZL18XXH_readLE32_alignPKv13XXH_alignment.exit.i ]
  %.not24.i = icmp eq i64 %.015.lcssa.i, 0
  br i1 %.not24.i, label %_ZL14XXH32_finalizejPKhm13XXH_alignment.exit, label %.lr.ph.i

_ZL18XXH_readLE32_alignPKv13XXH_alignment.exit.i: ; preds = %54, %_ZL18XXH_readLE32_alignPKv13XXH_alignment.exit.i
  %.021.i = phi i32 [ %62, %_ZL18XXH_readLE32_alignPKv13XXH_alignment.exit.i ], [ %56, %54 ]
  %.01520.i = phi i64 [ %63, %_ZL18XXH_readLE32_alignPKv13XXH_alignment.exit.i ], [ %55, %54 ]
  %.01719.i = phi ptr [ %60, %_ZL18XXH_readLE32_alignPKv13XXH_alignment.exit.i ], [ %.1.i10, %54 ]
  %.0.i.i = load i32, ptr %.01719.i, align 1, !tbaa !4
  %58 = mul i32 %.0.i.i, -1028477379
  %59 = add i32 %58, %.021.i
  %60 = getelementptr inbounds nuw i8, ptr %.01719.i, i64 4
  %61 = tail call i32 @llvm.fshl.i32(i32 %59, i32 %59, i32 17)
  %62 = mul i32 %61, 668265263
  %63 = add nsw i64 %.01520.i, -4
  %64 = icmp ugt i64 %63, 3
  br i1 %64, label %_ZL18XXH_readLE32_alignPKv13XXH_alignment.exit.i, label %.preheader.i, !llvm.loop !11

.lr.ph.i:                                         ; preds = %.preheader.i, %.lr.ph.i
  %.127.i = phi i32 [ %71, %.lr.ph.i ], [ %.0.lcssa.i, %.preheader.i ]
  %.11626.i = phi i64 [ %72, %.lr.ph.i ], [ %.015.lcssa.i, %.preheader.i ]
  %.11825.i = phi ptr [ %65, %.lr.ph.i ], [ %.017.lcssa.i, %.preheader.i ]
  %65 = getelementptr inbounds nuw i8, ptr %.11825.i, i64 1
  %66 = load i8, ptr %.11825.i, align 1, !tbaa !12
  %67 = zext i8 %66 to i32
  %68 = mul i32 %67, 374761393
  %69 = add i32 %68, %.127.i
  %70 = tail call i32 @llvm.fshl.i32(i32 %69, i32 %69, i32 11)
  %71 = mul i32 %70, -1640531535
  %72 = add nsw i64 %.11626.i, -1
  %.not.i = icmp eq i64 %72, 0
  br i1 %.not.i, label %_ZL14XXH32_finalizejPKhm13XXH_alignment.exit, label %.lr.ph.i, !llvm.loop !13

_ZL14XXH32_finalizejPKhm13XXH_alignment.exit:     ; preds = %.lr.ph.i, %.preheader.thread.i, %.preheader.i
  %.1.lcssa.i = phi i32 [ %.0.lcssa.i, %.preheader.i ], [ %53, %.preheader.thread.i ], [ %71, %.lr.ph.i ]
  %73 = lshr i32 %.1.lcssa.i, 15
  %74 = xor i32 %73, %.1.lcssa.i
  %75 = mul i32 %74, -2048144777
  %76 = lshr i32 %75, 13
  %77 = xor i32 %76, %75
  %78 = mul i32 %77, -1028477379
  %79 = lshr i32 %78, 16
  %80 = xor i32 %79, %78
  ret i32 %80
}